; Listing generated by Microsoft (R) Optimizing Compiler Version 16.00.40219.01 

	TITLE	I:\test_git\Lab_1_1\Visual_Studio_2010_environment\1_1\Source_code\io.cpp
	.686P
	.XMM
	include listing.inc
	.model	flat

INCLUDELIB MSVCRTD
INCLUDELIB OLDNAMES

PUBLIC	??_C@_02DPKJAMEF@?$CFd?$AA@			; `string'
PUBLIC	??_C@_02BMJICGCB@rt?$AA@			; `string'
PUBLIC	??_C@_0BG@NKLMKJLC@Input?5the?5file?5name?3?5?$AA@ ; `string'
PUBLIC	__$ArrayPad$
PUBLIC	?readFile@@YAXPAHQAH@Z				; readFile
EXTRN	__imp__fclose:PROC
EXTRN	__imp__fscanf:PROC
EXTRN	__imp__fopen:PROC
EXTRN	__imp__gets:PROC
EXTRN	__imp__printf:PROC
EXTRN	___security_cookie:DWORD
EXTRN	@__security_check_cookie@4:PROC
EXTRN	@_RTC_CheckStackVars@8:PROC
EXTRN	__RTC_CheckEsp:PROC
EXTRN	__RTC_Shutdown:PROC
EXTRN	__RTC_InitBase:PROC
;	COMDAT ??_C@_02DPKJAMEF@?$CFd?$AA@
; File i:\test_git\lab_1_1\visual_studio_2010_environment\1_1\source_code\io.cpp
CONST	SEGMENT
??_C@_02DPKJAMEF@?$CFd?$AA@ DB '%d', 00H		; `string'
CONST	ENDS
;	COMDAT ??_C@_02BMJICGCB@rt?$AA@
CONST	SEGMENT
??_C@_02BMJICGCB@rt?$AA@ DB 'rt', 00H			; `string'
CONST	ENDS
;	COMDAT ??_C@_0BG@NKLMKJLC@Input?5the?5file?5name?3?5?$AA@
CONST	SEGMENT
??_C@_0BG@NKLMKJLC@Input?5the?5file?5name?3?5?$AA@ DB 'Input the file nam'
	DB	'e: ', 00H					; `string'
CONST	ENDS
;	COMDAT rtc$TMZ
rtc$TMZ	SEGMENT
__RTC_Shutdown.rtc$TMZ DD FLAT:__RTC_Shutdown
rtc$TMZ	ENDS
;	COMDAT rtc$IMZ
rtc$IMZ	SEGMENT
__RTC_InitBase.rtc$IMZ DD FLAT:__RTC_InitBase
; Function compile flags: /Odtp /RTCsu /ZI
rtc$IMZ	ENDS
;	COMDAT ?readFile@@YAXPAHQAH@Z
_TEXT	SEGMENT
_filename$ = -64					; size = 30
_fp$ = -24						; size = 4
_i$ = -12						; size = 4
__$ArrayPad$ = -4					; size = 4
_dataSize$ = 8						; size = 4
_data$ = 12						; size = 4
?readFile@@YAXPAHQAH@Z PROC				; readFile, COMDAT
; Line 4
	push	ebp
	mov	ebp, esp
	sub	esp, 260				; 00000104H
	push	ebx
	push	esi
	push	edi
	lea	edi, DWORD PTR [ebp-260]
	mov	ecx, 65					; 00000041H
	mov	eax, -858993460				; ccccccccH
	rep stosd
	mov	eax, DWORD PTR ___security_cookie
	xor	eax, ebp
	mov	DWORD PTR __$ArrayPad$[ebp], eax
; Line 9
	mov	esi, esp
	push	OFFSET ??_C@_0BG@NKLMKJLC@Input?5the?5file?5name?3?5?$AA@
	call	DWORD PTR __imp__printf
	add	esp, 4
	cmp	esi, esp
	call	__RTC_CheckEsp
; Line 10
	mov	esi, esp
	lea	eax, DWORD PTR _filename$[ebp]
	push	eax
	call	DWORD PTR __imp__gets
	add	esp, 4
	cmp	esi, esp
	call	__RTC_CheckEsp
; Line 12
	mov	esi, esp
	push	OFFSET ??_C@_02BMJICGCB@rt?$AA@
	lea	eax, DWORD PTR _filename$[ebp]
	push	eax
	call	DWORD PTR __imp__fopen
	add	esp, 8
	cmp	esi, esp
	call	__RTC_CheckEsp
	mov	DWORD PTR _fp$[ebp], eax
; Line 13
	mov	esi, esp
	mov	eax, DWORD PTR _dataSize$[ebp]
	push	eax
	push	OFFSET ??_C@_02DPKJAMEF@?$CFd?$AA@
	mov	ecx, DWORD PTR _fp$[ebp]
	push	ecx
	call	DWORD PTR __imp__fscanf
	add	esp, 12					; 0000000cH
	cmp	esi, esp
	call	__RTC_CheckEsp
; Line 14
	mov	DWORD PTR _i$[ebp], 0
	jmp	SHORT $LN3@readFile
$LN2@readFile:
	mov	eax, DWORD PTR _i$[ebp]
	add	eax, 1
	mov	DWORD PTR _i$[ebp], eax
$LN3@readFile:
	mov	eax, DWORD PTR _dataSize$[ebp]
	mov	ecx, DWORD PTR _i$[ebp]
	cmp	ecx, DWORD PTR [eax]
	jge	SHORT $LN1@readFile
; Line 15
	mov	eax, DWORD PTR _i$[ebp]
	mov	ecx, DWORD PTR _data$[ebp]
	lea	edx, DWORD PTR [ecx+eax*4]
	mov	esi, esp
	push	edx
	push	OFFSET ??_C@_02DPKJAMEF@?$CFd?$AA@
	mov	eax, DWORD PTR _fp$[ebp]
	push	eax
	call	DWORD PTR __imp__fscanf
	add	esp, 12					; 0000000cH
	cmp	esi, esp
	call	__RTC_CheckEsp
	jmp	SHORT $LN2@readFile
$LN1@readFile:
; Line 16
	mov	esi, esp
	mov	eax, DWORD PTR _fp$[ebp]
	push	eax
	call	DWORD PTR __imp__fclose
	add	esp, 4
	cmp	esi, esp
	call	__RTC_CheckEsp
; Line 17
	push	edx
	mov	ecx, ebp
	push	eax
	lea	edx, DWORD PTR $LN8@readFile
	call	@_RTC_CheckStackVars@8
	pop	eax
	pop	edx
	pop	edi
	pop	esi
	pop	ebx
	mov	ecx, DWORD PTR __$ArrayPad$[ebp]
	xor	ecx, ebp
	call	@__security_check_cookie@4
	add	esp, 260				; 00000104H
	cmp	ebp, esp
	call	__RTC_CheckEsp
	mov	esp, ebp
	pop	ebp
	ret	0
	npad	2
$LN8@readFile:
	DD	1
	DD	$LN7@readFile
$LN7@readFile:
	DD	-64					; ffffffc0H
	DD	30					; 0000001eH
	DD	$LN6@readFile
$LN6@readFile:
	DB	102					; 00000066H
	DB	105					; 00000069H
	DB	108					; 0000006cH
	DB	101					; 00000065H
	DB	110					; 0000006eH
	DB	97					; 00000061H
	DB	109					; 0000006dH
	DB	101					; 00000065H
	DB	0
?readFile@@YAXPAHQAH@Z ENDP				; readFile
_TEXT	ENDS
PUBLIC	??_C@_03GPCJOALC@?$CF2d?$AA@			; `string'
PUBLIC	??_C@_01EEMJAFIK@?6?$AA@			; `string'
PUBLIC	?printArray@@YAXQBHH@Z				; printArray
;	COMDAT ??_C@_03GPCJOALC@?$CF2d?$AA@
CONST	SEGMENT
??_C@_03GPCJOALC@?$CF2d?$AA@ DB '%2d', 00H		; `string'
CONST	ENDS
;	COMDAT ??_C@_01EEMJAFIK@?6?$AA@
CONST	SEGMENT
??_C@_01EEMJAFIK@?6?$AA@ DB 0aH, 00H			; `string'
; Function compile flags: /Odtp /RTCsu /ZI
CONST	ENDS
;	COMDAT ?printArray@@YAXQBHH@Z
_TEXT	SEGMENT
_i$3866 = -8						; size = 4
_a$ = 8							; size = 4
_size$ = 12						; size = 4
?printArray@@YAXQBHH@Z PROC				; printArray, COMDAT
; Line 21
	push	ebp
	mov	ebp, esp
	sub	esp, 204				; 000000ccH
	push	ebx
	push	esi
	push	edi
	lea	edi, DWORD PTR [ebp-204]
	mov	ecx, 51					; 00000033H
	mov	eax, -858993460				; ccccccccH
	rep stosd
; Line 22
	mov	DWORD PTR _i$3866[ebp], 0
	jmp	SHORT $LN4@printArray
$LN3@printArray:
	mov	eax, DWORD PTR _i$3866[ebp]
	add	eax, 1
	mov	DWORD PTR _i$3866[ebp], eax
$LN4@printArray:
	mov	eax, DWORD PTR _i$3866[ebp]
	cmp	eax, DWORD PTR _size$[ebp]
	jge	SHORT $LN5@printArray
; Line 24
	mov	eax, DWORD PTR _i$3866[ebp]
	cdq
	mov	ecx, 20					; 00000014H
	idiv	ecx
	test	edx, edx
	jne	SHORT $LN1@printArray
; Line 25
	mov	esi, esp
	push	OFFSET ??_C@_01EEMJAFIK@?6?$AA@
	call	DWORD PTR __imp__printf
	add	esp, 4
	cmp	esi, esp
	call	__RTC_CheckEsp
$LN1@printArray:
; Line 27
	mov	esi, esp
	mov	eax, DWORD PTR _i$3866[ebp]
	mov	ecx, DWORD PTR _a$[ebp]
	mov	edx, DWORD PTR [ecx+eax*4]
	push	edx
	push	OFFSET ??_C@_03GPCJOALC@?$CF2d?$AA@
	call	DWORD PTR __imp__printf
	add	esp, 8
	cmp	esi, esp
	call	__RTC_CheckEsp
; Line 29
	jmp	SHORT $LN3@printArray
$LN5@printArray:
; Line 30
	pop	edi
	pop	esi
	pop	ebx
	add	esp, 204				; 000000ccH
	cmp	ebp, esp
	call	__RTC_CheckEsp
	mov	esp, ebp
	pop	ebp
	ret	0
?printArray@@YAXQBHH@Z ENDP				; printArray
_TEXT	ENDS
END
